target datalayout = "e-m:e-p270:32:32-p271:32:32-p272:64:64-i64:64-i128:128-f80:128-n8:16:32:64-S128"
target triple = "x86_64-pc-linux-gnu"

@.str.5 = private unnamed_addr constant [14 x i8] c"/proc/%u/task\00", align 1
@.str.6 = private unnamed_addr constant [16 x i8] c"/proc/self/task\00", align 1

; Function Attrs: nounwind uwtable
define internal i32 @hwloc_linux_foreach_proc_tid(ptr noundef %0, i32 noundef %1, ptr noundef %2, ptr noundef %3) #0 {
  %5 = alloca ptr, align 8
  %6 = alloca i32, align 4
  %7 = alloca ptr, align 8
  %8 = alloca ptr, align 8
  %9 = alloca [128 x i8], align 16
  %10 = alloca ptr, align 8
  %11 = alloca ptr, align 8
  %12 = alloca ptr, align 8
  %13 = alloca i32, align 4
  %14 = alloca i32, align 4
  %15 = alloca i32, align 4
  %16 = alloca i32, align 4
  %17 = alloca i32, align 4
  %18 = alloca i32, align 4
  %19 = alloca i32, align 4
  store ptr %0, ptr %5, align 8, !tbaa !19
  store i32 %1, ptr %6, align 4, !tbaa !10
  store ptr %2, ptr %7, align 8, !tbaa !21
  store ptr %3, ptr %8, align 8, !tbaa !21
  call void @llvm.lifetime.start.p0(i64 128, ptr %9) #14
  call void @llvm.lifetime.start.p0(i64 8, ptr %10) #14
  call void @llvm.lifetime.start.p0(i64 8, ptr %11) #14
  call void @llvm.lifetime.start.p0(i64 8, ptr %12) #14
  call void @llvm.lifetime.start.p0(i64 4, ptr %13) #14
  call void @llvm.lifetime.start.p0(i64 4, ptr %14) #14
  call void @llvm.lifetime.start.p0(i64 4, ptr %15) #14
  call void @llvm.lifetime.start.p0(i64 4, ptr %16) #14
  store i32 0, ptr %16, align 4, !tbaa !10
  call void @llvm.lifetime.start.p0(i64 4, ptr %17) #14
  store i32 0, ptr %17, align 4, !tbaa !10
  call void @llvm.lifetime.start.p0(i64 4, ptr %18) #14
  store i32 0, ptr %18, align 4, !tbaa !10
  call void @llvm.lifetime.start.p0(i64 4, ptr %19) #14
  %20 = load i32, ptr %6, align 4, !tbaa !10
  %21 = icmp ne i32 %20, 0
  br i1 %21, label %22, label %26

22:                                               ; preds = %4
  %23 = getelementptr inbounds [128 x i8], ptr %9, i64 0, i64 0
  %24 = load i32, ptr %6, align 4, !tbaa !10
  %25 = call i32 (ptr, i64, ptr, ...) @snprintf(ptr noundef %23, i64 noundef 128, ptr noundef @.str.5, i32 noundef %24) #14
  br label %29

26:                                               ; preds = %4
  %27 = getelementptr inbounds [128 x i8], ptr %9, i64 0, i64 0
  %28 = call i32 (ptr, i64, ptr, ...) @snprintf(ptr noundef %27, i64 noundef 128, ptr noundef @.str.6) #14
  br label %29

29:                                               ; preds = %26, %22
  %30 = getelementptr inbounds [128 x i8], ptr %9, i64 0, i64 0
  %31 = call ptr @opendir(ptr noundef %30)
  store ptr %31, ptr %10, align 8, !tbaa !98
  %32 = load ptr, ptr %10, align 8, !tbaa !98
  %33 = icmp ne ptr %32, null
  br i1 %33, label %41, label %34

34:                                               ; preds = %29
  %35 = call ptr @__errno_location() #18
  %36 = load i32, ptr %35, align 4, !tbaa !10
  %37 = icmp eq i32 %36, 2
  br i1 %37, label %38, label %40

38:                                               ; preds = %34
  %39 = call ptr @__errno_location() #18
  store i32 22, ptr %39, align 4, !tbaa !10
  br label %40

40:                                               ; preds = %38, %34
  store i32 -1, ptr %19, align 4, !tbaa !10
  br label %124

41:                                               ; preds = %29
  %42 = load ptr, ptr %10, align 8, !tbaa !98
  %43 = call i32 @hwloc_linux_get_proc_tids(ptr noundef %42, ptr noundef %14, ptr noundef %11)
  store i32 %43, ptr %19, align 4, !tbaa !10
  %44 = load i32, ptr %19, align 4, !tbaa !10
  %45 = icmp slt i32 %44, 0
  br i1 %45, label %46, label %47

46:                                               ; preds = %41
  br label %121

47:                                               ; preds = %41
  br label %48

48:                                               ; preds = %109, %47
  store i32 0, ptr %16, align 4, !tbaa !10
  store i32 0, ptr %13, align 4, !tbaa !10
  br label %49

49:                                               ; preds = %72, %48
  %50 = load i32, ptr %13, align 4, !tbaa !10
  %51 = load i32, ptr %14, align 4, !tbaa !10
  %52 = icmp ult i32 %50, %51
  br i1 %52, label %53, label %75

53:                                               ; preds = %49
  %54 = load ptr, ptr %7, align 8, !tbaa !21
  %55 = load ptr, ptr %5, align 8, !tbaa !19
  %56 = load ptr, ptr %11, align 8, !tbaa !91
  %57 = load i32, ptr %13, align 4, !tbaa !10
  %58 = zext i32 %57 to i64
  %59 = getelementptr inbounds nuw i32, ptr %56, i64 %58
  %60 = load i32, ptr %59, align 4, !tbaa !10
  %61 = load ptr, ptr %8, align 8, !tbaa !21
  %62 = load i32, ptr %13, align 4, !tbaa !10
  %63 = call i32 %54(ptr noundef %55, i32 noundef %60, ptr noundef %61, i32 noundef %62)
  store i32 %63, ptr %19, align 4, !tbaa !10
  %64 = load i32, ptr %19, align 4, !tbaa !10
  %65 = icmp slt i32 %64, 0
  br i1 %65, label %66, label %71

66:                                               ; preds = %53
  %67 = load i32, ptr %16, align 4, !tbaa !10
  %68 = add i32 %67, 1
  store i32 %68, ptr %16, align 4, !tbaa !10
  %69 = call ptr @__errno_location() #18
  %70 = load i32, ptr %69, align 4, !tbaa !10
  store i32 %70, ptr %17, align 4, !tbaa !10
  br label %71

71:                                               ; preds = %66, %53
  br label %72

72:                                               ; preds = %71
  %73 = load i32, ptr %13, align 4, !tbaa !10
  %74 = add i32 %73, 1
  store i32 %74, ptr %13, align 4, !tbaa !10
  br label %49, !llvm.loop !100

75:                                               ; preds = %49
  %76 = load ptr, ptr %10, align 8, !tbaa !98
  %77 = call i32 @hwloc_linux_get_proc_tids(ptr noundef %76, ptr noundef %15, ptr noundef %12)
  store i32 %77, ptr %19, align 4, !tbaa !10
  %78 = load i32, ptr %19, align 4, !tbaa !10
  %79 = icmp slt i32 %78, 0
  br i1 %79, label %80, label %81

80:                                               ; preds = %75
  br label %119

81:                                               ; preds = %75
  %82 = load i32, ptr %15, align 4, !tbaa !10
  %83 = load i32, ptr %14, align 4, !tbaa !10
  %84 = icmp ne i32 %82, %83
  br i1 %84, label %100, label %85

85:                                               ; preds = %81
  %86 = load ptr, ptr %12, align 8, !tbaa !91
  %87 = load ptr, ptr %11, align 8, !tbaa !91
  %88 = load i32, ptr %14, align 4, !tbaa !10
  %89 = zext i32 %88 to i64
  %90 = mul i64 %89, 4
  %91 = call i32 @memcmp(ptr noundef %86, ptr noundef %87, i64 noundef %90) #17
  %92 = icmp ne i32 %91, 0
  br i1 %92, label %100, label %93

93:                                               ; preds = %85
  %94 = load i32, ptr %16, align 4, !tbaa !10
  %95 = icmp ne i32 %94, 0
  br i1 %95, label %96, label %110

96:                                               ; preds = %93
  %97 = load i32, ptr %16, align 4, !tbaa !10
  %98 = load i32, ptr %14, align 4, !tbaa !10
  %99 = icmp ne i32 %97, %98
  br i1 %99, label %100, label %110

100:                                              ; preds = %96, %85, %81
  %101 = load ptr, ptr %11, align 8, !tbaa !91
  call void @free(ptr noundef %101) #14
  %102 = load ptr, ptr %12, align 8, !tbaa !91
  store ptr %102, ptr %11, align 8, !tbaa !91
  %103 = load i32, ptr %15, align 4, !tbaa !10
  store i32 %103, ptr %14, align 4, !tbaa !10
  %104 = load i32, ptr %18, align 4, !tbaa !10
  %105 = add i32 %104, 1
  store i32 %105, ptr %18, align 4, !tbaa !10
  %106 = icmp ugt i32 %105, 10
  br i1 %106, label %107, label %109

107:                                              ; preds = %100
  %108 = call ptr @__errno_location() #18
  store i32 11, ptr %108, align 4, !tbaa !10
  store i32 -1, ptr %19, align 4, !tbaa !10
  br label %119

109:                                              ; preds = %100
  br label %48

110:                                              ; preds = %96, %93
  %111 = load ptr, ptr %12, align 8, !tbaa !91
  call void @free(ptr noundef %111) #14
  br label %112

112:                                              ; preds = %110
  %113 = load i32, ptr %16, align 4, !tbaa !10
  %114 = icmp ne i32 %113, 0
  br i1 %114, label %115, label %118

115:                                              ; preds = %112
  store i32 -1, ptr %19, align 4, !tbaa !10
  %116 = load i32, ptr %17, align 4, !tbaa !10
  %117 = call ptr @__errno_location() #18
  store i32 %116, ptr %117, align 4, !tbaa !10
  br label %119

118:                                              ; preds = %112
  store i32 0, ptr %19, align 4, !tbaa !10
  br label %119

119:                                              ; preds = %118, %115, %107, %80
  %120 = load ptr, ptr %11, align 8, !tbaa !91
  call void @free(ptr noundef %120) #14
  br label %121

121:                                              ; preds = %119, %46
  %122 = load ptr, ptr %10, align 8, !tbaa !98
  %123 = call i32 @closedir(ptr noundef %122)
  br label %124

124:                                              ; preds = %121, %40
  %125 = load i32, ptr %19, align 4, !tbaa !10
  call void @llvm.lifetime.end.p0(i64 4, ptr %19) #14
  call void @llvm.lifetime.end.p0(i64 4, ptr %18) #14
  call void @llvm.lifetime.end.p0(i64 4, ptr %17) #14
  call void @llvm.lifetime.end.p0(i64 4, ptr %16) #14
  call void @llvm.lifetime.end.p0(i64 4, ptr %15) #14
  call void @llvm.lifetime.end.p0(i64 4, ptr %14) #14
  call void @llvm.lifetime.end.p0(i64 4, ptr %13) #14
  call void @llvm.lifetime.end.p0(i64 8, ptr %12) #14
  call void @llvm.lifetime.end.p0(i64 8, ptr %11) #14
  call void @llvm.lifetime.end.p0(i64 8, ptr %10) #14
  call void @llvm.lifetime.end.p0(i64 128, ptr %9) #14
  ret i32 %125
}