; Function Attrs: nounwind uwtable
define internal fastcc range(i32 -1, 1) i32 @hwloc_linux_foreach_proc_tid(ptr noundef %0, i32 noundef %1, ptr noundef readonly captures(none) %2, ptr noundef %3) unnamed_addr #0 {
  %5 = alloca [128 x i8], align 16
  %6 = alloca ptr, align 8
  %7 = alloca ptr, align 8
  %8 = alloca i32, align 4
  %9 = alloca i32, align 4
  call void @llvm.lifetime.start.p0(i64 128, ptr nonnull %5) #27
  call void @llvm.lifetime.start.p0(i64 8, ptr nonnull %6) #27
  call void @llvm.lifetime.start.p0(i64 8, ptr nonnull %7) #27
  call void @llvm.lifetime.start.p0(i64 4, ptr nonnull %8) #27
  call void @llvm.lifetime.start.p0(i64 4, ptr nonnull %9) #27
  %.not = icmp eq i32 %1, 0
  br i1 %.not, label %12, label %10

10:                                               ; preds = %4
  %11 = call i32 (ptr, i64, ptr, ...) @snprintf(ptr noundef nonnull dereferenceable(1) %5, i64 noundef 128, ptr noundef nonnull @.str.5, i32 noundef %1) #27
  br label %13

12:                                               ; preds = %4
  call void @llvm.memcpy.p0.p0.i64(ptr noundef nonnull align 16 dereferenceable(16) %5, ptr noundef nonnull align 1 dereferenceable(16) @.str.6, i64 16, i1 false)
  br label %13

13:                                               ; preds = %12, %10
  %14 = call ptr @opendir(ptr noundef nonnull %5)
  %.not35 = icmp eq ptr %14, null
  br i1 %.not35, label %15, label %20

15:                                               ; preds = %13
  %16 = tail call ptr @__errno_location() #31
  %17 = load i32, ptr %16, align 4, !tbaa !3
  %18 = icmp eq i32 %17, 2
  br i1 %18, label %19, label %51

19:                                               ; preds = %15
  store i32 22, ptr %16, align 4, !tbaa !3
  br label %51

20:                                               ; preds = %13
  %21 = call fastcc i32 @hwloc_linux_get_proc_tids(ptr noundef %14, ptr noundef %8, ptr noundef %6)
  %22 = icmp slt i32 %21, 0
  br i1 %22, label %49, label %.preheader

.preheader:                                       ; preds = %20
  %.promoted = load i32, ptr %8, align 4, !tbaa !3
  %.promoted50 = load ptr, ptr %6, align 8
  br label %23

23:                                               ; preds = %.preheader, %44
  %24 = phi ptr [ %.pre, %44 ], [ %.promoted50, %.preheader ]
  %25 = phi i32 [ %39, %44 ], [ %.promoted, %.preheader ]
  %.023 = phi i32 [ %.124.lcssa, %44 ], [ 0, %.preheader ]
  %.022 = phi i32 [ %45, %44 ], [ 0, %.preheader ]
  %.not54 = icmp eq i32 %25, 0
  br i1 %.not54, label %._crit_edge, label %.lr.ph.preheader

.lr.ph.preheader:                                 ; preds = %23
  %wide.trip.count = zext i32 %25 to i64
  br label %.lr.ph

.lr.ph:                                           ; preds = %.lr.ph.preheader, %35
  %indvars.iv = phi i64 [ 0, %.lr.ph.preheader ], [ %indvars.iv.next, %35 ]
  %.12445 = phi i32 [ %.023, %.lr.ph.preheader ], [ %.225, %35 ]
  %.02644 = phi i32 [ 0, %.lr.ph.preheader ], [ %.127, %35 ]
  %26 = getelementptr inbounds nuw i32, ptr %24, i64 %indvars.iv
  %27 = load i32, ptr %26, align 4, !tbaa !3
  %28 = trunc nuw i64 %indvars.iv to i32
  %29 = tail call i32 %2(ptr noundef %0, i32 noundef %27, ptr noundef %3, i32 noundef %28) #27, !callees !96
  %30 = icmp slt i32 %29, 0
  br i1 %30, label %31, label %35

31:                                               ; preds = %.lr.ph
  %32 = add i32 %.02644, 1
  %33 = tail call ptr @__errno_location() #31
  %34 = load i32, ptr %33, align 4, !tbaa !3
  br label %35

35:                                               ; preds = %.lr.ph, %31
  %.127 = phi i32 [ %32, %31 ], [ %.02644, %.lr.ph ]
  %.225 = phi i32 [ %34, %31 ], [ %.12445, %.lr.ph ]
  %indvars.iv.next = add nuw nsw i64 %indvars.iv, 1
  %exitcond.not = icmp eq i64 %indvars.iv.next, %wide.trip.count
  br i1 %exitcond.not, label %._crit_edge, label %.lr.ph, !llvm.loop !94

._crit_edge:                                      ; preds = %35, %23
  %.026.lcssa = phi i32 [ 0, %23 ], [ %.127, %35 ]
  %.124.lcssa = phi i32 [ %.023, %23 ], [ %.225, %35 ]
  %36 = call fastcc i32 @hwloc_linux_get_proc_tids(ptr noundef %14, ptr noundef %9, ptr noundef %7)
  %37 = icmp slt i32 %36, 0
  br i1 %37, label %.loopexit, label %38

38:                                               ; preds = %._crit_edge
  %39 = load i32, ptr %9, align 4, !tbaa !3
  %.not36 = icmp eq i32 %39, %25
  %.pre = load ptr, ptr %7, align 8, !tbaa !95
  br i1 %.not36, label %40, label %44

40:                                               ; preds = %38
  %41 = zext i32 %25 to i64
  %42 = shl nuw nsw i64 %41, 2
  %bcmp = tail call i32 @bcmp(ptr %.pre, ptr %24, i64 %42)
  %.not37 = icmp eq i32 %bcmp, 0
  br i1 %.not37, label %43, label %44

43:                                               ; preds = %40
  %.not38 = icmp eq i32 %.026.lcssa, 0
  %.not39 = icmp eq i32 %.026.lcssa, %25
  %or.cond = or i1 %.not38, %.not39
  br i1 %or.cond, label %46, label %44

44:                                               ; preds = %43, %40, %38
  tail call void @free(ptr noundef %24) #27
  %45 = add nuw nsw i32 %.022, 1
  %exitcond67 = icmp eq i32 %45, 11
  br i1 %exitcond67, label %.loopexit.sink.split, label %23

46:                                               ; preds = %43
  tail call void @free(ptr noundef %.pre) #27
  br i1 %.not38, label %.loopexit, label %.loopexit.sink.split

.loopexit.sink.split:                             ; preds = %44, %46
  %.124.lcssa.sink = phi i32 [ %.124.lcssa, %46 ], [ 11, %44 ]
  %.ph = phi ptr [ %24, %46 ], [ %.pre, %44 ]
  %47 = tail call ptr @__errno_location() #31
  store i32 %.124.lcssa.sink, ptr %47, align 4, !tbaa !3
  br label %.loopexit

.loopexit:                                        ; preds = %._crit_edge, %.loopexit.sink.split, %46
  %48 = phi ptr [ %24, %46 ], [ %.ph, %.loopexit.sink.split ], [ %24, %._crit_edge ]
  %.2 = phi i32 [ 0, %46 ], [ -1, %.loopexit.sink.split ], [ -1, %._crit_edge ]
  tail call void @free(ptr noundef %48) #27
  br label %49

49:                                               ; preds = %20, %.loopexit
  %.1 = phi i32 [ -1, %20 ], [ %.2, %.loopexit ]
  %50 = tail call i32 @closedir(ptr noundef nonnull %14)
  br label %51

51:                                               ; preds = %15, %19, %49
  %.0 = phi i32 [ %.1, %49 ], [ -1, %19 ], [ -1, %15 ]
  call void @llvm.lifetime.end.p0(i64 4, ptr nonnull %9) #27
  call void @llvm.lifetime.end.p0(i64 4, ptr nonnull %8) #27
  call void @llvm.lifetime.end.p0(i64 8, ptr nonnull %7) #27
  call void @llvm.lifetime.end.p0(i64 8, ptr nonnull %6) #27
  call void @llvm.lifetime.end.p0(i64 128, ptr nonnull %5) #27
  ret i32 %.0
}